target datalayout = "e-m:e-p270:32:32-p271:32:32-p272:64:64-i64:64-i128:128-f80:128-n8:16:32:64-S128"
target triple = "x86_64-pc-linux-gnu"

%class.LogTagSet = type { ptr, i64, [5 x i32], [4 x i8], %class.LogOutputList, %class.LogDecorators, ptr }
%class.LogOutputList = type <{ [6 x ptr], i32, [4 x i8] }>
%class.LogDecorators = type { i32 }
%struct.malloclimit = type { i64, i32 }

@_ZZN19MallocMemorySummary19total_limit_reachedEmmPK11malloclimitE9stopafter = internal global i32 10, align 4
@.str = private unnamed_addr constant [110 x i8] c"MallocLimit: reached global limit (triggering allocation size: %lu%s, allocated so far: %lu%s, limit: %lu%s) \00", align 1
@g_assert_poison = external global ptr, align 8
@.str.5 = private unnamed_addr constant [40 x i8] c"src/hotspot/share/nmt/mallocTracker.cpp\00", align 1
@_ZN16LogTagSetMappingILN6LogTag4typeE95ELS1_0ELS1_0ELS1_0ELS1_0ELS1_0EE7_tagsetE = linkonce_odr hidden global %class.LogTagSet zeroinitializer, comdat, align 8
@.str.14 = private unnamed_addr constant [2 x i8] c"G\00", align 1
@.str.15 = private unnamed_addr constant [2 x i8] c"M\00", align 1
@.str.16 = private unnamed_addr constant [2 x i8] c"K\00", align 1
@.str.17 = private unnamed_addr constant [2 x i8] c"B\00", align 1

; Function Attrs: mustprogress nounwind uwtable
define linkonce_odr hidden noundef zeroext i1 @_ZNK13LogOutputList8is_levelEN8LogLevel4typeE(ptr noundef nonnull align 8 dereferenceable(52) %0, i32 noundef %1) #1 comdat align 2 {
  %3 = alloca ptr, align 8
  %4 = alloca i32, align 4
  store ptr %0, ptr %3, align 8
  store i32 %1, ptr %4, align 4
  %5 = load ptr, ptr %3, align 8
  %6 = getelementptr inbounds %class.LogOutputList, ptr %5, i32 0, i32 0
  %7 = load i32, ptr %4, align 4
  %8 = zext i32 %7 to i64
  %9 = getelementptr inbounds [6 x ptr], ptr %6, i64 0, i64 %8
  %10 = load volatile ptr, ptr %9, align 8
  %11 = icmp ne ptr %10, null
  ret i1 %11
}

; Function Attrs: mustprogress nounwind uwtable
define linkonce_odr hidden noundef zeroext i1 @_ZNK9LogTagSet8is_levelEN8LogLevel4typeE(ptr noundef nonnull align 8 dereferenceable(112) %0, i32 noundef %1) #1 comdat align 2 {
  %3 = alloca ptr, align 8
  %4 = alloca i32, align 4
  store ptr %0, ptr %3, align 8
  store i32 %1, ptr %4, align 4
  %5 = load ptr, ptr %3, align 8
  %6 = getelementptr inbounds %class.LogTagSet, ptr %5, i32 0, i32 4
  %7 = load i32, ptr %4, align 4
  %8 = call noundef zeroext i1 @_ZNK13LogOutputList8is_levelEN8LogLevel4typeE(ptr noundef nonnull align 8 dereferenceable(52) %6, i32 noundef %7)
  ret i1 %8
}

; Function Attrs: mustprogress nounwind uwtable
define linkonce_odr hidden noundef nonnull align 8 dereferenceable(112) ptr @_ZN16LogTagSetMappingILN6LogTag4typeE95ELS1_0ELS1_0ELS1_0ELS1_0ELS1_0EE6tagsetEv() #1 comdat align 2 {
  ret ptr @_ZN16LogTagSetMappingILN6LogTag4typeE95ELS1_0ELS1_0ELS1_0ELS1_0ELS1_0EE7_tagsetE
}

; Function Attrs: mustprogress nounwind uwtable
define linkonce_odr hidden noundef ptr @_Z25proper_unit_for_byte_sizem(i64 noundef %0) #1 comdat {
  %2 = alloca ptr, align 8
  %3 = alloca i64, align 8
  store i64 %0, ptr %3, align 8
  %4 = load i64, ptr %3, align 8
  %5 = icmp uge i64 %4, 107374182400
  br i1 %5, label %6, label %7

6:                                                ; preds = %1
  store ptr @.str.14, ptr %2, align 8
  br label %16

7:                                                ; preds = %1
  %8 = load i64, ptr %3, align 8
  %9 = icmp uge i64 %8, 104857600
  br i1 %9, label %10, label %11

10:                                               ; preds = %7
  store ptr @.str.15, ptr %2, align 8
  br label %16

11:                                               ; preds = %7
  %12 = load i64, ptr %3, align 8
  %13 = icmp uge i64 %12, 102400
  br i1 %13, label %14, label %15

14:                                               ; preds = %11
  store ptr @.str.16, ptr %2, align 8
  br label %16

15:                                               ; preds = %11
  store ptr @.str.17, ptr %2, align 8
  br label %16

16:                                               ; preds = %15, %14, %10, %6
  %17 = load ptr, ptr %2, align 8
  ret ptr %17
}

; Function Attrs: mustprogress nounwind uwtable
define linkonce_odr hidden noundef zeroext i1 @_ZN7LogImplILN6LogTag4typeE95ELS1_0ELS1_0ELS1_0ELS1_0ELS1_0EE8is_levelEN8LogLevel4typeE(i32 noundef %0) #1 comdat align 2 {
  %2 = alloca i32, align 4
  store i32 %0, ptr %2, align 4
  %3 = call noundef nonnull align 8 dereferenceable(112) ptr @_ZN16LogTagSetMappingILN6LogTag4typeE95ELS1_0ELS1_0ELS1_0ELS1_0ELS1_0EE6tagsetEv()
  %4 = load i32, ptr %2, align 4
  %5 = call noundef zeroext i1 @_ZNK9LogTagSet8is_levelEN8LogLevel4typeE(ptr noundef nonnull align 8 dereferenceable(112) %3, i32 noundef %4)
  ret i1 %5
}

; Function Attrs: mustprogress nounwind uwtable
define hidden noundef zeroext i1 @_ZN19MallocMemorySummary19total_limit_reachedEmmPK11malloclimit(i64 noundef %0, i64 noundef %1, ptr noundef %2) #1 align 2 {
  %4 = alloca i1, align 1
  %5 = alloca i64, align 8
  %6 = alloca i64, align 8
  %7 = alloca ptr, align 8
  store i64 %0, ptr %5, align 8
  store i64 %1, ptr %6, align 8
  store ptr %2, ptr %7, align 8
  %8 = call noundef zeroext i1 @_ZN7VMError17is_error_reportedEv()
  br i1 %8, label %9, label %35

9:                                                ; preds = %3
  %10 = load i32, ptr @_ZZN19MallocMemorySummary19total_limit_reachedEmmPK11malloclimitE9stopafter, align 4
  %11 = add nsw i32 %10, -1
  store i32 %11, ptr @_ZZN19MallocMemorySummary19total_limit_reachedEmmPK11malloclimitE9stopafter, align 4
  %12 = icmp sgt i32 %10, 0
  br i1 %12, label %13, label %34

13:                                               ; preds = %9
  %14 = call noundef zeroext i1 @_ZN7LogImplILN6LogTag4typeE95ELS1_0ELS1_0ELS1_0ELS1_0ELS1_0EE8is_levelEN8LogLevel4typeE(i32 noundef 4)
  br i1 %14, label %16, label %15

15:                                               ; preds = %13
  br label %33

16:                                               ; preds = %13
  %17 = load i64, ptr %5, align 8
  %18 = call noundef i64 @_Z24byte_size_in_proper_unitImET_S0_(i64 noundef %17)
  %19 = load i64, ptr %5, align 8
  %20 = call noundef ptr @_Z25proper_unit_for_byte_sizem(i64 noundef %19)
  %21 = load i64, ptr %6, align 8
  %22 = call noundef i64 @_Z24byte_size_in_proper_unitImET_S0_(i64 noundef %21)
  %23 = load i64, ptr %6, align 8
  %24 = call noundef ptr @_Z25proper_unit_for_byte_sizem(i64 noundef %23)
  %25 = load ptr, ptr %7, align 8
  %26 = getelementptr inbounds %struct.malloclimit, ptr %25, i32 0, i32 0
  %27 = load i64, ptr %26, align 8
  %28 = call noundef i64 @_Z24byte_size_in_proper_unitImET_S0_(i64 noundef %27)
  %29 = load ptr, ptr %7, align 8
  %30 = getelementptr inbounds %struct.malloclimit, ptr %29, i32 0, i32 0
  %31 = load i64, ptr %30, align 8
  %32 = call noundef ptr @_Z25proper_unit_for_byte_sizem(i64 noundef %31)
  call void (ptr, ...) @_ZN7LogImplILN6LogTag4typeE95ELS1_0ELS1_0ELS1_0ELS1_0ELS1_0EE5writeILN8LogLevel4typeE4EEEvPKcz(ptr noundef @.str, i64 noundef %18, ptr noundef %20, i64 noundef %22, ptr noundef %24, i64 noundef %28, ptr noundef %32)
  br label %33

33:                                               ; preds = %16, %15
  br label %34

34:                                               ; preds = %33, %9
  store i1 false, ptr %4, align 1
  br label %82

35:                                               ; preds = %3
  %36 = load ptr, ptr %7, align 8
  %37 = getelementptr inbounds %struct.malloclimit, ptr %36, i32 0, i32 1
  %38 = load i32, ptr %37, align 8
  %39 = icmp eq i32 %38, 0
  br i1 %39, label %40, label %60

40:                                               ; preds = %35
  br label %41

41:                                               ; preds = %40
  %42 = load ptr, ptr @g_assert_poison, align 8
  store i8 88, ptr %42, align 1
  %43 = load i64, ptr %5, align 8
  %44 = call noundef i64 @_Z24byte_size_in_proper_unitImET_S0_(i64 noundef %43)
  %45 = load i64, ptr %5, align 8
  %46 = call noundef ptr @_Z25proper_unit_for_byte_sizem(i64 noundef %45)
  %47 = load i64, ptr %6, align 8
  %48 = call noundef i64 @_Z24byte_size_in_proper_unitImET_S0_(i64 noundef %47)
  %49 = load i64, ptr %6, align 8
  %50 = call noundef ptr @_Z25proper_unit_for_byte_sizem(i64 noundef %49)
  %51 = load ptr, ptr %7, align 8
  %52 = getelementptr inbounds %struct.malloclimit, ptr %51, i32 0, i32 0
  %53 = load i64, ptr %52, align 8
  %54 = call noundef i64 @_Z24byte_size_in_proper_unitImET_S0_(i64 noundef %53)
  %55 = load ptr, ptr %7, align 8
  %56 = getelementptr inbounds %struct.malloclimit, ptr %55, i32 0, i32 0
  %57 = load i64, ptr %56, align 8
  %58 = call noundef ptr @_Z25proper_unit_for_byte_sizem(i64 noundef %57)
  call void (i32, ptr, i32, ptr, ...) @_Z12report_fatal11VMErrorTypePKciS1_z(i32 noundef -536870912, ptr noundef @.str.5, i32 noundef 122, ptr noundef @.str, i64 noundef %44, ptr noundef %46, i64 noundef %48, ptr noundef %50, i64 noundef %54, ptr noundef %58) #9
  unreachable

59:                                               ; No predecessors!
  br label %81

60:                                               ; preds = %35
  %61 = call noundef zeroext i1 @_ZN7LogImplILN6LogTag4typeE95ELS1_0ELS1_0ELS1_0ELS1_0ELS1_0EE8is_levelEN8LogLevel4typeE(i32 noundef 4)
  br i1 %61, label %63, label %62

62:                                               ; preds = %60
  br label %80

63:                                               ; preds = %60
  %64 = load i64, ptr %5, align 8
  %65 = call noundef i64 @_Z24byte_size_in_proper_unitImET_S0_(i64 noundef %64)
  %66 = load i64, ptr %5, align 8
  %67 = call noundef ptr @_Z25proper_unit_for_byte_sizem(i64 noundef %66)
  %68 = load i64, ptr %6, align 8
  %69 = call noundef i64 @_Z24byte_size_in_proper_unitImET_S0_(i64 noundef %68)
  %70 = load i64, ptr %6, align 8
  %71 = call noundef ptr @_Z25proper_unit_for_byte_sizem(i64 noundef %70)
  %72 = load ptr, ptr %7, align 8
  %73 = getelementptr inbounds %struct.malloclimit, ptr %72, i32 0, i32 0
  %74 = load i64, ptr %73, align 8
  %75 = call noundef i64 @_Z24byte_size_in_proper_unitImET_S0_(i64 noundef %74)
  %76 = load ptr, ptr %7, align 8
  %77 = getelementptr inbounds %struct.malloclimit, ptr %76, i32 0, i32 0
  %78 = load i64, ptr %77, align 8
  %79 = call noundef ptr @_Z25proper_unit_for_byte_sizem(i64 noundef %78)
  call void (ptr, ...) @_ZN7LogImplILN6LogTag4typeE95ELS1_0ELS1_0ELS1_0ELS1_0ELS1_0EE5writeILN8LogLevel4typeE4EEEvPKcz(ptr noundef @.str, i64 noundef %65, ptr noundef %67, i64 noundef %69, ptr noundef %71, i64 noundef %75, ptr noundef %79)
  br label %80

80:                                               ; preds = %63, %62
  br label %81

81:                                               ; preds = %80, %59
  store i1 true, ptr %4, align 1
  br label %82

82:                                               ; preds = %81, %34
  %83 = load i1, ptr %4, align 1
  ret i1 %83
}