; Function Attrs: mustprogress nounwind uwtable
define hidden noundef zeroext i1 @_ZN19MallocMemorySummary19total_limit_reachedEmmPK11malloclimit(i64 noundef %0, i64 noundef %1, ptr nocapture noundef readonly %2) local_unnamed_addr #0 align 2 {
  %4 = tail call noundef zeroext i1 @_ZN7VMError17is_error_reportedEv() #10
  br i1 %4, label %5, label %37

5:                                                ; preds = %3
  %6 = load i32, ptr @_ZZN19MallocMemorySummary19total_limit_reachedEmmPK11malloclimitE9stopafter, align 4
  %7 = add nsw i32 %6, -1
  store i32 %7, ptr @_ZZN19MallocMemorySummary19total_limit_reachedEmmPK11malloclimitE9stopafter, align 4
  %8 = icmp sgt i32 %6, 0
  br i1 %8, label %9, label %91

9:                                                ; preds = %5
  %10 = load volatile ptr, ptr getelementptr inbounds (i8, ptr @_ZN16LogTagSetMappingILN6LogTag4typeE95ELS1_0ELS1_0ELS1_0ELS1_0ELS1_0EE7_tagsetE, i64 72), align 8
  %.not88 = icmp eq ptr %10, null
  br i1 %.not88, label %91, label %11

11:                                               ; preds = %9
  %12 = icmp ugt i64 %0, 107374182399
  br i1 %12, label %_Z24byte_size_in_proper_unitImET_S0_.exit, label %13

13:                                               ; preds = %11
  %14 = icmp ugt i64 %0, 104857599
  br i1 %14, label %.thread, label %17

.thread:                                          ; preds = %13
  %15 = lshr i64 %0, 20
  br label %_Z25proper_unit_for_byte_sizem.exit

_Z24byte_size_in_proper_unitImET_S0_.exit:        ; preds = %11
  %16 = lshr i64 %0, 30
  br label %_Z25proper_unit_for_byte_sizem.exit

17:                                               ; preds = %13
  %18 = icmp ugt i64 %0, 102399
  %19 = lshr i64 %0, 10
  %spec.select.i = select i1 %18, i64 %19, i64 %0
  %.str.16..str.17.i = select i1 %18, ptr @.str.16, ptr @.str.17
  br label %_Z25proper_unit_for_byte_sizem.exit

_Z25proper_unit_for_byte_sizem.exit:              ; preds = %.thread, %_Z24byte_size_in_proper_unitImET_S0_.exit, %17
  %.0.i61 = phi i64 [ %16, %_Z24byte_size_in_proper_unitImET_S0_.exit ], [ %spec.select.i, %17 ], [ %15, %.thread ]
  %.0.i19 = phi ptr [ @.str.14, %_Z24byte_size_in_proper_unitImET_S0_.exit ], [ %.str.16..str.17.i, %17 ], [ @.str.15, %.thread ]
  %20 = icmp ugt i64 %1, 107374182399
  br i1 %20, label %_Z24byte_size_in_proper_unitImET_S0_.exit22, label %21

21:                                               ; preds = %_Z25proper_unit_for_byte_sizem.exit
  %22 = icmp ugt i64 %1, 104857599
  br i1 %22, label %.thread66, label %25

.thread66:                                        ; preds = %21
  %23 = lshr i64 %1, 20
  br label %_Z25proper_unit_for_byte_sizem.exit25

_Z24byte_size_in_proper_unitImET_S0_.exit22:      ; preds = %_Z25proper_unit_for_byte_sizem.exit
  %24 = lshr i64 %1, 30
  br label %_Z25proper_unit_for_byte_sizem.exit25

25:                                               ; preds = %21
  %26 = icmp ugt i64 %1, 102399
  %27 = lshr i64 %1, 10
  %spec.select.i20 = select i1 %26, i64 %27, i64 %1
  %.str.16..str.17.i23 = select i1 %26, ptr @.str.16, ptr @.str.17
  br label %_Z25proper_unit_for_byte_sizem.exit25

_Z25proper_unit_for_byte_sizem.exit25:            ; preds = %.thread66, %_Z24byte_size_in_proper_unitImET_S0_.exit22, %25
  %.0.i2165 = phi i64 [ %24, %_Z24byte_size_in_proper_unitImET_S0_.exit22 ], [ %spec.select.i20, %25 ], [ %23, %.thread66 ]
  %.0.i24 = phi ptr [ @.str.14, %_Z24byte_size_in_proper_unitImET_S0_.exit22 ], [ %.str.16..str.17.i23, %25 ], [ @.str.15, %.thread66 ]
  %28 = load i64, ptr %2, align 8
  %29 = icmp ugt i64 %28, 107374182399
  br i1 %29, label %_Z24byte_size_in_proper_unitImET_S0_.exit28, label %30

30:                                               ; preds = %_Z25proper_unit_for_byte_sizem.exit25
  %31 = icmp ugt i64 %28, 104857599
  br i1 %31, label %.thread71, label %34

.thread71:                                        ; preds = %30
  %32 = lshr i64 %28, 20
  br label %_Z25proper_unit_for_byte_sizem.exit31

_Z24byte_size_in_proper_unitImET_S0_.exit28:      ; preds = %_Z25proper_unit_for_byte_sizem.exit25
  %33 = lshr i64 %28, 30
  br label %_Z25proper_unit_for_byte_sizem.exit31

34:                                               ; preds = %30
  %35 = icmp ugt i64 %28, 102399
  %36 = lshr i64 %28, 10
  %spec.select.i26 = select i1 %35, i64 %36, i64 %28
  %.str.16..str.17.i29 = select i1 %35, ptr @.str.16, ptr @.str.17
  br label %_Z25proper_unit_for_byte_sizem.exit31

_Z25proper_unit_for_byte_sizem.exit31:            ; preds = %.thread71, %_Z24byte_size_in_proper_unitImET_S0_.exit28, %34
  %.0.i2770 = phi i64 [ %33, %_Z24byte_size_in_proper_unitImET_S0_.exit28 ], [ %spec.select.i26, %34 ], [ %32, %.thread71 ]
  %.0.i30 = phi ptr [ @.str.14, %_Z24byte_size_in_proper_unitImET_S0_.exit28 ], [ %.str.16..str.17.i29, %34 ], [ @.str.15, %.thread71 ]
  tail call void (ptr, ...) @_ZN7LogImplILN6LogTag4typeE95ELS1_0ELS1_0ELS1_0ELS1_0ELS1_0EE5writeILN8LogLevel4typeE4EEEvPKcz(ptr noundef nonnull @.str, i64 noundef %.0.i61, ptr noundef nonnull %.0.i19, i64 noundef %.0.i2165, ptr noundef nonnull %.0.i24, i64 noundef %.0.i2770, ptr noundef nonnull %.0.i30)
  br label %91

37:                                               ; preds = %3
  %38 = getelementptr inbounds i8, ptr %2, i64 8
  %39 = load i32, ptr %38, align 8
  %40 = icmp eq i32 %39, 0
  br i1 %40, label %41, label %63

41:                                               ; preds = %37
  %42 = load ptr, ptr @g_assert_poison, align 8
  store i8 88, ptr %42, align 1
  %43 = tail call noundef i64 @_Z24byte_size_in_proper_unitImET_S0_(i64 noundef %0)
  %44 = icmp ugt i64 %0, 107374182399
  br i1 %44, label %_Z25proper_unit_for_byte_sizem.exit34, label %45

45:                                               ; preds = %41
  %46 = icmp ugt i64 %0, 104857599
  br i1 %46, label %_Z25proper_unit_for_byte_sizem.exit34, label %47

47:                                               ; preds = %45
  %48 = icmp ugt i64 %0, 102399
  %.str.16..str.17.i32 = select i1 %48, ptr @.str.16, ptr @.str.17
  br label %_Z25proper_unit_for_byte_sizem.exit34

_Z25proper_unit_for_byte_sizem.exit34:            ; preds = %41, %45, %47
  %.0.i33 = phi ptr [ @.str.14, %41 ], [ @.str.15, %45 ], [ %.str.16..str.17.i32, %47 ]
  %49 = tail call noundef i64 @_Z24byte_size_in_proper_unitImET_S0_(i64 noundef %1)
  %50 = icmp ugt i64 %1, 107374182399
  br i1 %50, label %_Z25proper_unit_for_byte_sizem.exit37, label %51

51:                                               ; preds = %_Z25proper_unit_for_byte_sizem.exit34
  %52 = icmp ugt i64 %1, 104857599
  br i1 %52, label %_Z25proper_unit_for_byte_sizem.exit37, label %53

53:                                               ; preds = %51
  %54 = icmp ugt i64 %1, 102399
  %.str.16..str.17.i35 = select i1 %54, ptr @.str.16, ptr @.str.17
  br label %_Z25proper_unit_for_byte_sizem.exit37

_Z25proper_unit_for_byte_sizem.exit37:            ; preds = %_Z25proper_unit_for_byte_sizem.exit34, %51, %53
  %.0.i36 = phi ptr [ @.str.14, %_Z25proper_unit_for_byte_sizem.exit34 ], [ @.str.15, %51 ], [ %.str.16..str.17.i35, %53 ]
  %55 = load i64, ptr %2, align 8
  %56 = tail call noundef i64 @_Z24byte_size_in_proper_unitImET_S0_(i64 noundef %55)
  %57 = load i64, ptr %2, align 8
  %58 = icmp ugt i64 %57, 107374182399
  br i1 %58, label %_Z25proper_unit_for_byte_sizem.exit40, label %59

59:                                               ; preds = %_Z25proper_unit_for_byte_sizem.exit37
  %60 = icmp ugt i64 %57, 104857599
  br i1 %60, label %_Z25proper_unit_for_byte_sizem.exit40, label %61

61:                                               ; preds = %59
  %62 = icmp ugt i64 %57, 102399
  %.str.16..str.17.i38 = select i1 %62, ptr @.str.16, ptr @.str.17
  br label %_Z25proper_unit_for_byte_sizem.exit40

_Z25proper_unit_for_byte_sizem.exit40:            ; preds = %_Z25proper_unit_for_byte_sizem.exit37, %59, %61
  %.0.i39 = phi ptr [ @.str.14, %_Z25proper_unit_for_byte_sizem.exit37 ], [ @.str.15, %59 ], [ %.str.16..str.17.i38, %61 ]
  tail call void (i32, ptr, i32, ptr, ...) @_Z12report_fatal11VMErrorTypePKciS1_z(i32 noundef -536870912, ptr noundef nonnull @.str.5, i32 noundef 122, ptr noundef nonnull @.str, i64 noundef %43, ptr noundef nonnull %.0.i33, i64 noundef %49, ptr noundef nonnull %.0.i36, i64 noundef %56, ptr noundef nonnull %.0.i39) #11
  unreachable

63:                                               ; preds = %37
  %64 = load volatile ptr, ptr getelementptr inbounds (i8, ptr @_ZN16LogTagSetMappingILN6LogTag4typeE95ELS1_0ELS1_0ELS1_0ELS1_0ELS1_0EE7_tagsetE, i64 72), align 8
  %.not = icmp eq ptr %64, null
  br i1 %.not, label %91, label %65

65:                                               ; preds = %63
  %66 = icmp ugt i64 %0, 107374182399
  br i1 %66, label %_Z24byte_size_in_proper_unitImET_S0_.exit43, label %67

67:                                               ; preds = %65
  %68 = icmp ugt i64 %0, 104857599
  br i1 %68, label %.thread76, label %71

.thread76:                                        ; preds = %67
  %69 = lshr i64 %0, 20
  br label %_Z25proper_unit_for_byte_sizem.exit46

_Z24byte_size_in_proper_unitImET_S0_.exit43:      ; preds = %65
  %70 = lshr i64 %0, 30
  br label %_Z25proper_unit_for_byte_sizem.exit46

71:                                               ; preds = %67
  %72 = icmp ugt i64 %0, 102399
  %73 = lshr i64 %0, 10
  %spec.select.i41 = select i1 %72, i64 %73, i64 %0
  %.str.16..str.17.i44 = select i1 %72, ptr @.str.16, ptr @.str.17
  br label %_Z25proper_unit_for_byte_sizem.exit46

_Z25proper_unit_for_byte_sizem.exit46:            ; preds = %.thread76, %_Z24byte_size_in_proper_unitImET_S0_.exit43, %71
  %.0.i4275 = phi i64 [ %70, %_Z24byte_size_in_proper_unitImET_S0_.exit43 ], [ %spec.select.i41, %71 ], [ %69, %.thread76 ]
  %.0.i45 = phi ptr [ @.str.14, %_Z24byte_size_in_proper_unitImET_S0_.exit43 ], [ %.str.16..str.17.i44, %71 ], [ @.str.15, %.thread76 ]
  %74 = icmp ugt i64 %1, 107374182399
  br i1 %74, label %_Z24byte_size_in_proper_unitImET_S0_.exit49, label %75

75:                                               ; preds = %_Z25proper_unit_for_byte_sizem.exit46
  %76 = icmp ugt i64 %1, 104857599
  br i1 %76, label %.thread81, label %79

.thread81:                                        ; preds = %75
  %77 = lshr i64 %1, 20
  br label %_Z25proper_unit_for_byte_sizem.exit52

_Z24byte_size_in_proper_unitImET_S0_.exit49:      ; preds = %_Z25proper_unit_for_byte_sizem.exit46
  %78 = lshr i64 %1, 30
  br label %_Z25proper_unit_for_byte_sizem.exit52

79:                                               ; preds = %75
  %80 = icmp ugt i64 %1, 102399
  %81 = lshr i64 %1, 10
  %spec.select.i47 = select i1 %80, i64 %81, i64 %1
  %.str.16..str.17.i50 = select i1 %80, ptr @.str.16, ptr @.str.17
  br label %_Z25proper_unit_for_byte_sizem.exit52

_Z25proper_unit_for_byte_sizem.exit52:            ; preds = %.thread81, %_Z24byte_size_in_proper_unitImET_S0_.exit49, %79
  %.0.i4880 = phi i64 [ %78, %_Z24byte_size_in_proper_unitImET_S0_.exit49 ], [ %spec.select.i47, %79 ], [ %77, %.thread81 ]
  %.0.i51 = phi ptr [ @.str.14, %_Z24byte_size_in_proper_unitImET_S0_.exit49 ], [ %.str.16..str.17.i50, %79 ], [ @.str.15, %.thread81 ]
  %82 = load i64, ptr %2, align 8
  %83 = icmp ugt i64 %82, 107374182399
  br i1 %83, label %_Z24byte_size_in_proper_unitImET_S0_.exit55, label %84

84:                                               ; preds = %_Z25proper_unit_for_byte_sizem.exit52
  %85 = icmp ugt i64 %82, 104857599
  br i1 %85, label %.thread86, label %88

.thread86:                                        ; preds = %84
  %86 = lshr i64 %82, 20
  br label %_Z25proper_unit_for_byte_sizem.exit58

_Z24byte_size_in_proper_unitImET_S0_.exit55:      ; preds = %_Z25proper_unit_for_byte_sizem.exit52
  %87 = lshr i64 %82, 30
  br label %_Z25proper_unit_for_byte_sizem.exit58

88:                                               ; preds = %84
  %89 = icmp ugt i64 %82, 102399
  %90 = lshr i64 %82, 10
  %spec.select.i53 = select i1 %89, i64 %90, i64 %82
  %.str.16..str.17.i56 = select i1 %89, ptr @.str.16, ptr @.str.17
  br label %_Z25proper_unit_for_byte_sizem.exit58

_Z25proper_unit_for_byte_sizem.exit58:            ; preds = %.thread86, %_Z24byte_size_in_proper_unitImET_S0_.exit55, %88
  %.0.i5485 = phi i64 [ %87, %_Z24byte_size_in_proper_unitImET_S0_.exit55 ], [ %spec.select.i53, %88 ], [ %86, %.thread86 ]
  %.0.i57 = phi ptr [ @.str.14, %_Z24byte_size_in_proper_unitImET_S0_.exit55 ], [ %.str.16..str.17.i56, %88 ], [ @.str.15, %.thread86 ]
  tail call void (ptr, ...) @_ZN7LogImplILN6LogTag4typeE95ELS1_0ELS1_0ELS1_0ELS1_0ELS1_0EE5writeILN8LogLevel4typeE4EEEvPKcz(ptr noundef nonnull @.str, i64 noundef %.0.i4275, ptr noundef nonnull %.0.i45, i64 noundef %.0.i4880, ptr noundef nonnull %.0.i51, i64 noundef %.0.i5485, ptr noundef nonnull %.0.i57)
  br label %91

91:                                               ; preds = %63, %_Z25proper_unit_for_byte_sizem.exit58, %5, %9, %_Z25proper_unit_for_byte_sizem.exit31
  %.0 = xor i1 %4, true
  ret i1 %.0
}